; Function Attrs: nounwind uwtable
define internal void @obj_extra_data_dealloc(ptr noundef %0) #0 {
  %2 = getelementptr i8, ptr %0, i64 8
  %.val = load ptr, ptr %2, align 8, !tbaa !14
  tail call void @PyObject_GC_UnTrack(ptr noundef %0) #8
  %.val.i.i = load ptr, ptr %2, align 8, !tbaa !14
  %3 = getelementptr inbounds nuw i8, ptr %.val.i.i, i64 32
  %4 = load i64, ptr %3, align 8, !tbaa !28
  %5 = getelementptr i8, ptr %0, i64 %4
  %6 = load ptr, ptr %5, align 8, !tbaa !6
  %.not.i6 = icmp eq ptr %6, null
  br i1 %.not.i6, label %obj_extra_data_clear.exit, label %7

7:                                                ; preds = %1
  store ptr null, ptr %5, align 8, !tbaa !6
  %8 = load i32, ptr %6, align 8, !tbaa !3
  %.not.i.i = icmp sgt i32 %8, -1
  br i1 %.not.i.i, label %9, label %obj_extra_data_clear.exit

9:                                                ; preds = %7
  %10 = add nsw i32 %8, -1
  store i32 %10, ptr %6, align 8, !tbaa !3
  %11 = icmp eq i32 %10, 0
  br i1 %11, label %12, label %obj_extra_data_clear.exit

12:                                               ; preds = %9
  tail call void @_Py_Dealloc(ptr noundef nonnull %6) #8
  br label %obj_extra_data_clear.exit

obj_extra_data_clear.exit:                        ; preds = %1, %7, %9, %12
  %13 = getelementptr inbounds nuw i8, ptr %.val, i64 320
  %14 = load ptr, ptr %13, align 8, !tbaa !26
  tail call void %14(ptr noundef nonnull %0) #8
  %15 = load i32, ptr %.val, align 8, !tbaa !3
  %.not.i = icmp sgt i32 %15, -1
  br i1 %.not.i, label %16, label %Py_DECREF.exit

16:                                               ; preds = %obj_extra_data_clear.exit
  %17 = add nsw i32 %15, -1
  store i32 %17, ptr %.val, align 8, !tbaa !3
  %18 = icmp eq i32 %17, 0
  br i1 %18, label %19, label %Py_DECREF.exit

19:                                               ; preds = %16
  tail call void @_Py_Dealloc(ptr noundef nonnull %.val) #8
  br label %Py_DECREF.exit

Py_DECREF.exit:                                   ; preds = %obj_extra_data_clear.exit, %16, %19
  ret void
}